; Function Attrs: nounwind uwtable
define i32 @Res6_FindSupportSize(ptr noundef readonly captures(none) %0, i32 noundef %1) local_unnamed_addr #0 {
  %3 = tail call ptr @Res6_FindSupport(ptr noundef %0, i32 noundef %1)
  %4 = getelementptr i8, ptr %3, i64 4
  %.val = load i32, ptr %4, align 4, !tbaa !25
  %5 = getelementptr inbounds nuw i8, ptr %3, i64 8
  %6 = load ptr, ptr %5, align 8, !tbaa !29
  %.not.i = icmp eq ptr %6, null
  br i1 %.not.i, label %Vec_IntFree.exit, label %7

7:                                                ; preds = %2
  tail call void @free(ptr noundef nonnull %6) #21
  br label %Vec_IntFree.exit

Vec_IntFree.exit:                                 ; preds = %2, %7
  tail call void @free(ptr noundef nonnull %3) #21
  ret i32 %.val
}